; Function Attrs: mustprogress nofree norecurse nosync nounwind willreturn memory(readwrite, inaccessiblemem: none) uwtable
define void @_ZN12b2MotorJoint15SetLinearOffsetERK6b2Vec2(ptr nocapture noundef nonnull align 8 dereferenceable(252) %this, ptr nocapture noundef nonnull readonly align 4 dereferenceable(8) %linearOffset) local_unnamed_addr #11 align 2 {
entry:
  %0 = load float, ptr %linearOffset, align 4
  %m_linearOffset = getelementptr inbounds i8, ptr %this, i64 128
  %1 = load float, ptr %m_linearOffset, align 8
  %cmp = fcmp une float %0, %1
  br i1 %cmp, label %if.then, label %lor.lhs.false

lor.lhs.false:                                    ; preds = %entry
  %y = getelementptr inbounds i8, ptr %linearOffset, i64 4
  %2 = load float, ptr %y, align 4
  %y4 = getelementptr inbounds i8, ptr %this, i64 132
  %3 = load float, ptr %y4, align 4
  %cmp5 = fcmp une float %2, %3
  br i1 %cmp5, label %if.then, label %if.end

if.then:                                          ; preds = %lor.lhs.false, %entry
  %m_bodyA = getelementptr inbounds i8, ptr %this, i64 96
  %4 = load ptr, ptr %m_bodyA, align 8
  %5 = load i32, ptr %4, align 8
  %cmp.i = icmp eq i32 %5, 0
  br i1 %cmp.i, label %_ZN6b2Body8SetAwakeEb.exit, label %if.end.i

if.end.i:                                         ; preds = %if.then
  %m_flags.i = getelementptr inbounds i8, ptr %4, i64 4
  %6 = load i16, ptr %m_flags.i, align 4
  %m_sleepTime.i = getelementptr inbounds i8, ptr %4, i64 172
  %7 = or i16 %6, 2
  store i16 %7, ptr %m_flags.i, align 4
  store float 0.000000e+00, ptr %m_sleepTime.i, align 4
  br label %_ZN6b2Body8SetAwakeEb.exit

_ZN6b2Body8SetAwakeEb.exit:                       ; preds = %if.then, %if.end.i
  %m_bodyB = getelementptr inbounds i8, ptr %this, i64 104
  %8 = load ptr, ptr %m_bodyB, align 8
  %9 = load i32, ptr %8, align 8
  %cmp.i3 = icmp eq i32 %9, 0
  br i1 %cmp.i3, label %_ZN6b2Body8SetAwakeEb.exit7, label %if.end.i4

if.end.i4:                                        ; preds = %_ZN6b2Body8SetAwakeEb.exit
  %m_flags.i5 = getelementptr inbounds i8, ptr %8, i64 4
  %10 = load i16, ptr %m_flags.i5, align 4
  %m_sleepTime.i6 = getelementptr inbounds i8, ptr %8, i64 172
  %11 = or i16 %10, 2
  store i16 %11, ptr %m_flags.i5, align 4
  store float 0.000000e+00, ptr %m_sleepTime.i6, align 4
  br label %_ZN6b2Body8SetAwakeEb.exit7

_ZN6b2Body8SetAwakeEb.exit7:                      ; preds = %_ZN6b2Body8SetAwakeEb.exit, %if.end.i4
  %12 = load i64, ptr %linearOffset, align 4
  store i64 %12, ptr %m_linearOffset, align 8
  br label %if.end

if.end:                                           ; preds = %_ZN6b2Body8SetAwakeEb.exit7, %lor.lhs.false
  ret void
}